target datalayout = "e-m:e-p270:32:32-p271:32:32-p272:64:64-i64:64-i128:128-f80:128-n8:16:32:64-S128"
target triple = "x86_64-pc-linux-gnu"

%struct._object = type { %union.anon, ptr }
%union.anon = type { i64 }
%struct._operator_state = type { ptr, ptr, ptr }
%struct.PyModuleObject = type { %struct._object, ptr, ptr, ptr, ptr, ptr }

; Function Attrs: inlinehint nounwind uwtable
define internal ptr @_PyModule_GetState(ptr noundef %0) #3 {
  %2 = alloca ptr, align 8
  store ptr %0, ptr %2, align 8, !tbaa !4
  %3 = load ptr, ptr %2, align 8, !tbaa !4
  %4 = getelementptr inbounds nuw %struct.PyModuleObject, ptr %3, i32 0, i32 3
  %5 = load ptr, ptr %4, align 8, !tbaa !45
  ret ptr %5
}

; Function Attrs: inlinehint nounwind uwtable
define internal ptr @get_operator_state(ptr noundef %0) #3 {
  %2 = alloca ptr, align 8
  %3 = alloca ptr, align 8
  store ptr %0, ptr %2, align 8, !tbaa !4
  call void @llvm.lifetime.start.p0(i64 8, ptr %3) #7
  %4 = load ptr, ptr %2, align 8, !tbaa !4
  %5 = call ptr @_PyModule_GetState(ptr noundef %4)
  store ptr %5, ptr %3, align 8, !tbaa !9
  %6 = load ptr, ptr %3, align 8, !tbaa !9
  call void @llvm.lifetime.end.p0(i64 8, ptr %3) #7
  ret ptr %6
}

; Function Attrs: nounwind uwtable
define internal i32 @operator_traverse(ptr noundef %0, ptr noundef %1, ptr noundef %2) #0 {
  %4 = alloca i32, align 4
  %5 = alloca ptr, align 8
  %6 = alloca ptr, align 8
  %7 = alloca ptr, align 8
  %8 = alloca ptr, align 8
  %9 = alloca i32, align 4
  %10 = alloca i32, align 4
  %11 = alloca i32, align 4
  %12 = alloca i32, align 4
  store ptr %0, ptr %5, align 8, !tbaa !4
  store ptr %1, ptr %6, align 8, !tbaa !9
  store ptr %2, ptr %7, align 8, !tbaa !9
  call void @llvm.lifetime.start.p0(i64 8, ptr %8) #7
  %13 = load ptr, ptr %5, align 8, !tbaa !4
  %14 = call ptr @get_operator_state(ptr noundef %13)
  store ptr %14, ptr %8, align 8, !tbaa !9
  br label %15

15:                                               ; preds = %3
  %16 = load ptr, ptr %8, align 8, !tbaa !9
  %17 = getelementptr inbounds nuw %struct._operator_state, ptr %16, i32 0, i32 1
  %18 = load ptr, ptr %17, align 8, !tbaa !10
  %19 = icmp ne ptr %18, null
  br i1 %19, label %20, label %35

20:                                               ; preds = %15
  call void @llvm.lifetime.start.p0(i64 4, ptr %9) #7
  %21 = load ptr, ptr %6, align 8, !tbaa !9
  %22 = load ptr, ptr %8, align 8, !tbaa !9
  %23 = getelementptr inbounds nuw %struct._operator_state, ptr %22, i32 0, i32 1
  %24 = load ptr, ptr %23, align 8, !tbaa !10
  %25 = load ptr, ptr %7, align 8, !tbaa !9
  %26 = call i32 %21(ptr noundef %24, ptr noundef %25)
  store i32 %26, ptr %9, align 4, !tbaa !12
  %27 = load i32, ptr %9, align 4, !tbaa !12
  %28 = icmp ne i32 %27, 0
  br i1 %28, label %29, label %31

29:                                               ; preds = %20
  %30 = load i32, ptr %9, align 4, !tbaa !12
  store i32 %30, ptr %4, align 4
  store i32 1, ptr %10, align 4
  br label %32

31:                                               ; preds = %20
  store i32 0, ptr %10, align 4
  br label %32

32:                                               ; preds = %31, %29
  call void @llvm.lifetime.end.p0(i64 4, ptr %9) #7
  %33 = load i32, ptr %10, align 4
  switch i32 %33, label %84 [
    i32 0, label %34
  ]

34:                                               ; preds = %32
  br label %35

35:                                               ; preds = %34, %15
  br label %36

36:                                               ; preds = %35
  br label %37

37:                                               ; preds = %36
  br label %38

38:                                               ; preds = %37
  %39 = load ptr, ptr %8, align 8, !tbaa !9
  %40 = getelementptr inbounds nuw %struct._operator_state, ptr %39, i32 0, i32 0
  %41 = load ptr, ptr %40, align 8, !tbaa !14
  %42 = icmp ne ptr %41, null
  br i1 %42, label %43, label %58

43:                                               ; preds = %38
  call void @llvm.lifetime.start.p0(i64 4, ptr %11) #7
  %44 = load ptr, ptr %6, align 8, !tbaa !9
  %45 = load ptr, ptr %8, align 8, !tbaa !9
  %46 = getelementptr inbounds nuw %struct._operator_state, ptr %45, i32 0, i32 0
  %47 = load ptr, ptr %46, align 8, !tbaa !14
  %48 = load ptr, ptr %7, align 8, !tbaa !9
  %49 = call i32 %44(ptr noundef %47, ptr noundef %48)
  store i32 %49, ptr %11, align 4, !tbaa !12
  %50 = load i32, ptr %11, align 4, !tbaa !12
  %51 = icmp ne i32 %50, 0
  br i1 %51, label %52, label %54

52:                                               ; preds = %43
  %53 = load i32, ptr %11, align 4, !tbaa !12
  store i32 %53, ptr %4, align 4
  store i32 1, ptr %10, align 4
  br label %55

54:                                               ; preds = %43
  store i32 0, ptr %10, align 4
  br label %55

55:                                               ; preds = %54, %52
  call void @llvm.lifetime.end.p0(i64 4, ptr %11) #7
  %56 = load i32, ptr %10, align 4
  switch i32 %56, label %84 [
    i32 0, label %57
  ]

57:                                               ; preds = %55
  br label %58

58:                                               ; preds = %57, %38
  br label %59

59:                                               ; preds = %58
  br label %60

60:                                               ; preds = %59
  br label %61

61:                                               ; preds = %60
  %62 = load ptr, ptr %8, align 8, !tbaa !9
  %63 = getelementptr inbounds nuw %struct._operator_state, ptr %62, i32 0, i32 2
  %64 = load ptr, ptr %63, align 8, !tbaa !15
  %65 = icmp ne ptr %64, null
  br i1 %65, label %66, label %81

66:                                               ; preds = %61
  call void @llvm.lifetime.start.p0(i64 4, ptr %12) #7
  %67 = load ptr, ptr %6, align 8, !tbaa !9
  %68 = load ptr, ptr %8, align 8, !tbaa !9
  %69 = getelementptr inbounds nuw %struct._operator_state, ptr %68, i32 0, i32 2
  %70 = load ptr, ptr %69, align 8, !tbaa !15
  %71 = load ptr, ptr %7, align 8, !tbaa !9
  %72 = call i32 %67(ptr noundef %70, ptr noundef %71)
  store i32 %72, ptr %12, align 4, !tbaa !12
  %73 = load i32, ptr %12, align 4, !tbaa !12
  %74 = icmp ne i32 %73, 0
  br i1 %74, label %75, label %77

75:                                               ; preds = %66
  %76 = load i32, ptr %12, align 4, !tbaa !12
  store i32 %76, ptr %4, align 4
  store i32 1, ptr %10, align 4
  br label %78

77:                                               ; preds = %66
  store i32 0, ptr %10, align 4
  br label %78

78:                                               ; preds = %77, %75
  call void @llvm.lifetime.end.p0(i64 4, ptr %12) #7
  %79 = load i32, ptr %10, align 4
  switch i32 %79, label %84 [
    i32 0, label %80
  ]

80:                                               ; preds = %78
  br label %81

81:                                               ; preds = %80, %61
  br label %82

82:                                               ; preds = %81
  br label %83

83:                                               ; preds = %82
  store i32 0, ptr %4, align 4
  store i32 1, ptr %10, align 4
  br label %84

84:                                               ; preds = %83, %78, %55, %32
  call void @llvm.lifetime.end.p0(i64 8, ptr %8) #7
  %85 = load i32, ptr %4, align 4
  ret i32 %85
}