; Function Attrs: nounwind uwtable
define internal i32 @operator_traverse(ptr noundef readonly captures(none) %0, ptr noundef readonly captures(none) %1, ptr noundef %2) #0 {
  %4 = getelementptr i8, ptr %0, i64 32
  %.val = load ptr, ptr %4, align 8, !tbaa !4
  %5 = getelementptr inbounds nuw i8, ptr %.val, i64 8
  %6 = load ptr, ptr %5, align 8, !tbaa !13
  %.not = icmp eq ptr %6, null
  br i1 %.not, label %9, label %7

7:                                                ; preds = %3
  %8 = tail call i32 %1(ptr noundef nonnull %6, ptr noundef %2) #7
  %.not31 = icmp eq i32 %8, 0
  br i1 %.not31, label %9, label %19

9:                                                ; preds = %3, %7
  %10 = load ptr, ptr %.val, align 8, !tbaa !15
  %.not32 = icmp eq ptr %10, null
  br i1 %.not32, label %13, label %11

11:                                               ; preds = %9
  %12 = tail call i32 %1(ptr noundef nonnull %10, ptr noundef %2) #7
  %.not33 = icmp eq i32 %12, 0
  br i1 %.not33, label %13, label %19

13:                                               ; preds = %9, %11
  %14 = getelementptr inbounds nuw i8, ptr %.val, i64 16
  %15 = load ptr, ptr %14, align 8, !tbaa !16
  %.not34 = icmp eq ptr %15, null
  br i1 %.not34, label %18, label %16

16:                                               ; preds = %13
  %17 = tail call i32 %1(ptr noundef nonnull %15, ptr noundef %2) #7
  %.not35 = icmp eq i32 %17, 0
  br i1 %.not35, label %18, label %19

18:                                               ; preds = %16, %13
  br label %19

19:                                               ; preds = %7, %11, %16, %18
  %.1 = phi i32 [ 0, %18 ], [ %17, %16 ], [ %12, %11 ], [ %8, %7 ]
  ret i32 %.1
}